; Function Attrs: null_pointer_is_valid sspstrong uwtable
define internal fastcc noundef i32 @add_dtn_time_to_tree(ptr noundef %0, ptr noundef %1, i32 noundef %2, i32 noundef %3) unnamed_addr #0 {
  %5 = alloca i64, align 8
  %6 = alloca i64, align 8
  %7 = alloca %struct.nstime_t, align 8
  call void @llvm.lifetime.start.p0(i64 16, ptr nonnull %7) #6
  call void @llvm.lifetime.start.p0(i64 8, ptr nonnull %6) #6
  store i64 0, ptr %6, align 8
  %8 = call i32 @tvb_get_varint(ptr noundef %1, i32 noundef %2, i32 noundef 10, ptr noundef nonnull %6, i32 noundef 16)
  %9 = icmp eq i32 %8, 0
  br i1 %9, label %evaluate_sdnv.exit, label %10

10:                                               ; preds = %4
  %11 = load i64, ptr %6, align 8
  %12 = icmp ugt i64 %11, 2147483647
  br i1 %12, label %13, label %14

13:                                               ; preds = %10
  call void (ptr, i32, ptr, i64, ptr, ptr, ...) @ws_log_full(ptr noundef nonnull @.str.322, i32 noundef 5, ptr noundef nonnull @.str.323, i64 noundef 1859, ptr noundef nonnull @__func__.evaluate_sdnv, ptr noundef nonnull @.str.324)
  br label %17

14:                                               ; preds = %10
  %15 = shl nuw nsw i64 %11, 32
  %sext = add nuw i64 %15, 4065980255620300800
  %16 = ashr exact i64 %sext, 32
  br label %17

evaluate_sdnv.exit:                               ; preds = %4
  call void @llvm.lifetime.end.p0(i64 8, ptr nonnull %6) #6
  br label %31

17:                                               ; preds = %13, %14
  %.0.i.ph = phi i64 [ %16, %14 ], [ -1200798849, %13 ]
  call void @llvm.lifetime.end.p0(i64 8, ptr nonnull %6) #6
  store i64 %.0.i.ph, ptr %7, align 8
  %18 = add i32 %8, %2
  call void @llvm.lifetime.start.p0(i64 8, ptr nonnull %5) #6
  store i64 0, ptr %5, align 8
  %19 = call i32 @tvb_get_varint(ptr noundef %1, i32 noundef %18, i32 noundef 10, ptr noundef nonnull %5, i32 noundef 16)
  %20 = icmp eq i32 %19, 0
  br i1 %20, label %evaluate_sdnv.exit14, label %21

21:                                               ; preds = %17
  %22 = load i64, ptr %5, align 8
  %23 = icmp ugt i64 %22, 2147483647
  br i1 %23, label %24, label %25

24:                                               ; preds = %21
  call void (ptr, i32, ptr, i64, ptr, ptr, ...) @ws_log_full(ptr noundef nonnull @.str.322, i32 noundef 5, ptr noundef nonnull @.str.323, i64 noundef 1859, ptr noundef nonnull @__func__.evaluate_sdnv, ptr noundef nonnull @.str.324)
  br label %27

25:                                               ; preds = %21
  %26 = trunc nuw nsw i64 %22 to i32
  br label %27

evaluate_sdnv.exit14:                             ; preds = %17
  call void @llvm.lifetime.end.p0(i64 8, ptr nonnull %5) #6
  br label %31

27:                                               ; preds = %24, %25
  %.0.i13.ph = phi i32 [ %26, %25 ], [ 2147483647, %24 ]
  call void @llvm.lifetime.end.p0(i64 8, ptr nonnull %5) #6
  %28 = getelementptr inbounds nuw i8, ptr %7, i64 8
  store i32 %.0.i13.ph, ptr %28, align 8
  %29 = add i32 %19, %8
  %30 = call ptr @proto_tree_add_time(ptr noundef %0, i32 noundef %3, ptr noundef %1, i32 noundef %2, i32 noundef %29, ptr noundef nonnull %7)
  br label %31

31:                                               ; preds = %evaluate_sdnv.exit14, %evaluate_sdnv.exit, %27
  %.0 = phi i32 [ %29, %27 ], [ 0, %evaluate_sdnv.exit ], [ 0, %evaluate_sdnv.exit14 ]
  call void @llvm.lifetime.end.p0(i64 16, ptr nonnull %7) #6
  ret i32 %.0
}